target datalayout = "e-m:e-p270:32:32-p271:32:32-p272:64:64-i64:64-i128:128-f80:128-n8:16:32:64-S128"
target triple = "x86_64-pc-linux-gnu"

%class.Node = type <{ ptr, ptr, ptr, i32, i32, i32, i32, i32, i32, i32, [4 x i8] }>
%class.Phase = type { i32, ptr }
%class.Node.base = type <{ ptr, ptr, ptr, i32, i32, i32, i32, i32, i32, i32 }>
%class.PhaseValues = type { %class.PhaseTransform, i8, ptr, ptr, [137 x ptr], [137 x ptr], [20 x ptr] }
%class.PhaseTransform = type { ptr, %class.Phase }
%class.MultiNode.base = type { %class.Node.base }
%class.InitializeNode = type <{ %class.MemBarNode.base, i32, i8, [7 x i8] }>
%class.MemBarNode.base = type <{ %class.MultiNode.base, [4 x i8], ptr, i32 }>

; Function Attrs: mustprogress nounwind uwtable
define linkonce_odr hidden noundef ptr @_ZN11PhaseValues10is_IterGVNEv(ptr noundef nonnull align 8 dereferenceable(2400) %0) #1 comdat align 2 {
  %2 = alloca ptr, align 8
  store ptr %0, ptr %2, align 8
  %3 = load ptr, ptr %2, align 8
  %4 = getelementptr inbounds %class.PhaseValues, ptr %3, i32 0, i32 1
  %5 = load i8, ptr %4, align 8
  %6 = trunc i8 %5 to i1
  br i1 %6, label %7, label %8

7:                                                ; preds = %1
  br label %9

8:                                                ; preds = %1
  br label %9

9:                                                ; preds = %8, %7
  %10 = phi ptr [ %3, %7 ], [ null, %8 ]
  ret ptr %10
}

; Function Attrs: mustprogress nounwind uwtable
define linkonce_odr hidden noundef i32 @_ZNK4Node3reqEv(ptr noundef nonnull align 8 dereferenceable(52) %0) #1 comdat align 2 {
  %2 = alloca ptr, align 8
  store ptr %0, ptr %2, align 8
  %3 = load ptr, ptr %2, align 8
  %4 = getelementptr inbounds %class.Node, ptr %3, i32 0, i32 3
  %5 = load i32, ptr %4, align 8
  ret i32 %5
}

; Function Attrs: mustprogress nounwind uwtable
define hidden void @_ZN14InitializeNode12set_completeEP8PhaseGVN(ptr noundef nonnull align 8 dereferenceable(73) %0, ptr noundef %1) #1 align 2 {
  %3 = alloca ptr, align 8
  %4 = alloca ptr, align 8
  %5 = alloca ptr, align 8
  store ptr %0, ptr %3, align 8
  store ptr %1, ptr %4, align 8
  %6 = load ptr, ptr %3, align 8
  %7 = getelementptr inbounds %class.InitializeNode, ptr %6, i32 0, i32 1
  store i32 1, ptr %7, align 4
  %8 = load ptr, ptr %4, align 8
  %9 = call noundef ptr @_ZN11PhaseValues10is_IterGVNEv(ptr noundef nonnull align 8 dereferenceable(2400) %8)
  store ptr %9, ptr %5, align 8
  %10 = load ptr, ptr %5, align 8
  %11 = icmp ne ptr %10, null
  br i1 %11, label %12, label %14

12:                                               ; preds = %2
  %13 = load ptr, ptr %5, align 8
  call void @_ZN12PhaseIterGVN21add_users_to_worklistEP4Node(ptr noundef nonnull align 8 dereferenceable(2416) %13, ptr noundef %6)
  br label %14

14:                                               ; preds = %12, %2
  ret void
}

; Function Attrs: mustprogress nounwind uwtable
define hidden noundef zeroext i1 @_ZN14InitializeNode11is_non_zeroEv(ptr noundef nonnull align 8 dereferenceable(73) %0) #1 align 2 {
  %2 = alloca i1, align 1
  %3 = alloca ptr, align 8
  store ptr %0, ptr %3, align 8
  %4 = load ptr, ptr %3, align 8
  %5 = call noundef zeroext i1 @_ZN14InitializeNode11is_completeEv(ptr noundef nonnull align 8 dereferenceable(73) %4)
  br i1 %5, label %6, label %7

6:                                                ; preds = %1
  store i1 false, ptr %2, align 1
  br label %10

7:                                                ; preds = %1
  call void @_ZN14InitializeNode19remove_extra_zeroesEv(ptr noundef nonnull align 8 dereferenceable(73) %4)
  %8 = call noundef i32 @_ZNK4Node3reqEv(ptr noundef nonnull align 8 dereferenceable(52) %4)
  %9 = icmp ugt i32 %8, 6
  store i1 %9, ptr %2, align 1
  br label %10

10:                                               ; preds = %7, %6
  %11 = load i1, ptr %2, align 1
  ret i1 %11
}

; Function Attrs: mustprogress nounwind uwtable
define linkonce_odr hidden noundef zeroext i1 @_ZN14InitializeNode11is_completeEv(ptr noundef nonnull align 8 dereferenceable(73) %0) #1 comdat align 2 {
  %2 = alloca ptr, align 8
  store ptr %0, ptr %2, align 8
  %3 = load ptr, ptr %2, align 8
  %4 = getelementptr inbounds %class.InitializeNode, ptr %3, i32 0, i32 1
  %5 = load i32, ptr %4, align 4
  %6 = icmp ne i32 %5, 0
  ret i1 %6
}

; Function Attrs: mustprogress nounwind uwtable
define hidden noundef zeroext i1 @_ZN12AllocateNode18maybe_set_completeEP8PhaseGVN(ptr noundef nonnull align 8 dereferenceable(131) %0, ptr noundef %1) #1 align 2 {
  %3 = alloca i1, align 1
  %4 = alloca ptr, align 8
  %5 = alloca ptr, align 8
  %6 = alloca ptr, align 8
  store ptr %0, ptr %4, align 8
  store ptr %1, ptr %5, align 8
  %7 = load ptr, ptr %4, align 8
  %8 = call noundef ptr @_ZN12AllocateNode14initializationEv(ptr noundef nonnull align 8 dereferenceable(131) %7)
  store ptr %8, ptr %6, align 8
  %9 = load ptr, ptr %6, align 8
  %10 = icmp eq ptr %9, null
  br i1 %10, label %14, label %11

11:                                               ; preds = %2
  %12 = load ptr, ptr %6, align 8
  %13 = call noundef zeroext i1 @_ZN14InitializeNode11is_completeEv(ptr noundef nonnull align 8 dereferenceable(73) %12)
  br i1 %13, label %14, label %15

14:                                               ; preds = %11, %2
  store i1 false, ptr %3, align 1
  br label %23

15:                                               ; preds = %11
  %16 = load ptr, ptr %6, align 8
  call void @_ZN14InitializeNode19remove_extra_zeroesEv(ptr noundef nonnull align 8 dereferenceable(73) %16)
  %17 = load ptr, ptr %6, align 8
  %18 = call noundef zeroext i1 @_ZN14InitializeNode11is_non_zeroEv(ptr noundef nonnull align 8 dereferenceable(73) %17)
  br i1 %18, label %19, label %20

19:                                               ; preds = %15
  store i1 false, ptr %3, align 1
  br label %23

20:                                               ; preds = %15
  %21 = load ptr, ptr %6, align 8
  %22 = load ptr, ptr %5, align 8
  call void @_ZN14InitializeNode12set_completeEP8PhaseGVN(ptr noundef nonnull align 8 dereferenceable(73) %21, ptr noundef %22)
  store i1 true, ptr %3, align 1
  br label %23

23:                                               ; preds = %20, %19, %14
  %24 = load i1, ptr %3, align 1
  ret i1 %24
}