; Function Attrs: mustprogress nounwind uwtable
define hidden noundef zeroext i1 @_ZN12AllocateNode18maybe_set_completeEP8PhaseGVN(ptr noundef nonnull align 8 dereferenceable(131) %0, ptr noundef %1) local_unnamed_addr #1 align 2 {
  %3 = tail call noundef ptr @_ZN12AllocateNode14initializationEv(ptr noundef nonnull align 8 dereferenceable(131) %0) #13
  %4 = icmp eq ptr %3, null
  br i1 %4, label %_ZN14InitializeNode12set_completeEP8PhaseGVN.exit, label %5

5:                                                ; preds = %2
  %6 = getelementptr inbounds i8, ptr %3, i64 68
  %7 = load i32, ptr %6, align 4
  %.not = icmp eq i32 %7, 0
  br i1 %.not, label %8, label %_ZN14InitializeNode12set_completeEP8PhaseGVN.exit

8:                                                ; preds = %5
  tail call void @_ZN14InitializeNode19remove_extra_zeroesEv(ptr noundef nonnull align 8 dereferenceable(73) %3)
  %9 = load i32, ptr %6, align 4
  %.not.i = icmp eq i32 %9, 0
  br i1 %.not.i, label %_ZN14InitializeNode11is_non_zeroEv.exit, label %_ZN14InitializeNode11is_non_zeroEv.exit.thread

_ZN14InitializeNode11is_non_zeroEv.exit:          ; preds = %8
  tail call void @_ZN14InitializeNode19remove_extra_zeroesEv(ptr noundef nonnull align 8 dereferenceable(73) %3)
  %10 = getelementptr inbounds i8, ptr %3, i64 24
  %11 = load i32, ptr %10, align 8
  %12 = icmp ugt i32 %11, 6
  br i1 %12, label %_ZN14InitializeNode12set_completeEP8PhaseGVN.exit, label %_ZN14InitializeNode11is_non_zeroEv.exit.thread

_ZN14InitializeNode11is_non_zeroEv.exit.thread:   ; preds = %8, %_ZN14InitializeNode11is_non_zeroEv.exit
  store i32 1, ptr %6, align 4
  %13 = getelementptr inbounds i8, ptr %1, i64 24
  %14 = load i8, ptr %13, align 8
  %15 = trunc i8 %14 to i1
  %.not4.i = icmp ne ptr %1, null
  %.not.not.i = and i1 %.not4.i, %15
  br i1 %.not.not.i, label %16, label %_ZN14InitializeNode12set_completeEP8PhaseGVN.exit

16:                                               ; preds = %_ZN14InitializeNode11is_non_zeroEv.exit.thread
  tail call void @_ZN12PhaseIterGVN21add_users_to_worklistEP4Node(ptr noundef nonnull align 8 dereferenceable(2416) %1, ptr noundef nonnull %3) #13
  br label %_ZN14InitializeNode12set_completeEP8PhaseGVN.exit

_ZN14InitializeNode12set_completeEP8PhaseGVN.exit: ; preds = %16, %_ZN14InitializeNode11is_non_zeroEv.exit.thread, %_ZN14InitializeNode11is_non_zeroEv.exit, %2, %5
  %.0 = phi i1 [ false, %5 ], [ false, %2 ], [ false, %_ZN14InitializeNode11is_non_zeroEv.exit ], [ true, %_ZN14InitializeNode11is_non_zeroEv.exit.thread ], [ true, %16 ]
  ret i1 %.0
}